; Function Attrs: mustprogress uwtable
define internal void @_ZN9grpc_core12_GLOBAL__N_118SecurityHandshaker8ShutdownEN4absl12lts_202407226StatusE(ptr noundef nonnull align 16 dereferenceable(408) %0, ptr noundef captures(none) %1) unnamed_addr #3 align 2 personality ptr @__gxx_personality_v0 {
  %3 = alloca %"class.absl::lts_20240722::Status", align 8
  %4 = getelementptr inbounds nuw i8, ptr %0, i64 32
  tail call void @_ZN4absl12lts_202407225Mutex4LockEv(ptr noundef nonnull align 8 dereferenceable(8) %4)
  %5 = getelementptr inbounds nuw i8, ptr %0, i64 40
  %6 = load i8, ptr %5, align 8, !tbaa !75, !range !129, !noundef !130
  %7 = trunc nuw i8 %6 to i1
  br i1 %7, label %_ZNSt10unique_ptrI13grpc_endpointN9grpc_core16OrphanableDeleteEE5resetEPS0_.exit, label %8

8:                                                ; preds = %2
  store i8 1, ptr %5, align 8, !tbaa !75
  %9 = getelementptr inbounds nuw i8, ptr %0, i64 24
  %10 = load ptr, ptr %9, align 8, !tbaa !74
  %11 = getelementptr inbounds nuw i8, ptr %0, i64 400
  %12 = load ptr, ptr %11, align 16, !tbaa !84
  %13 = load i64, ptr %1, align 8, !tbaa !3
  store i64 %13, ptr %3, align 8, !tbaa !3
  store i64 55, ptr %1, align 8, !tbaa !3
  %14 = load ptr, ptr %10, align 8, !tbaa !34
  %15 = getelementptr inbounds nuw i8, ptr %14, i64 24
  %16 = load ptr, ptr %15, align 8
  invoke void %16(ptr noundef nonnull align 8 dereferenceable(32) %10, ptr noundef %12, ptr noundef nonnull %3)
          to label %17 unwind label %35

17:                                               ; preds = %8
  %18 = load i64, ptr %3, align 8, !tbaa !3
  %19 = and i64 %18, 1
  %.not.i.i = icmp eq i64 %19, 0
  br i1 %.not.i.i, label %20, label %_ZN4absl12lts_202407226StatusD2Ev.exit

20:                                               ; preds = %17
  %21 = inttoptr i64 %18 to ptr
  invoke void @_ZNK4absl12lts_2024072215status_internal9StatusRep5UnrefEv(ptr noundef nonnull align 8 dereferenceable(48) %21)
          to label %_ZN4absl12lts_202407226StatusD2Ev.exit unwind label %22

22:                                               ; preds = %20
  %23 = landingpad { ptr, i32 }
          catch ptr null
  %24 = extractvalue { ptr, i32 } %23, 0
  call void @__clang_call_terminate(ptr %24) #33
  unreachable

_ZN4absl12lts_202407226StatusD2Ev.exit:           ; preds = %17, %20
  %25 = getelementptr inbounds nuw i8, ptr %0, i64 16
  %26 = load ptr, ptr %25, align 16, !tbaa !48
  invoke void @_Z23tsi_handshaker_shutdownP14tsi_handshaker(ptr noundef %26)
          to label %27 unwind label %37

27:                                               ; preds = %_ZN4absl12lts_202407226StatusD2Ev.exit
  %28 = getelementptr inbounds nuw i8, ptr %0, i64 48
  %29 = load ptr, ptr %28, align 16, !tbaa !76
  %30 = load ptr, ptr %29, align 8, !tbaa !131
  store ptr null, ptr %29, align 8, !tbaa !131
  %.not.i.i4 = icmp eq ptr %30, null
  br i1 %.not.i.i4, label %_ZNSt10unique_ptrI13grpc_endpointN9grpc_core16OrphanableDeleteEE5resetEPS0_.exit, label %31

31:                                               ; preds = %27
  invoke void @_Z21grpc_endpoint_destroyP13grpc_endpoint(ptr noundef nonnull align 8 dereferenceable(8) %30)
          to label %_ZNSt10unique_ptrI13grpc_endpointN9grpc_core16OrphanableDeleteEE5resetEPS0_.exit unwind label %32

32:                                               ; preds = %31
  %33 = landingpad { ptr, i32 }
          catch ptr null
  %34 = extractvalue { ptr, i32 } %33, 0
  call void @__clang_call_terminate(ptr %34) #33
  unreachable

35:                                               ; preds = %8
  %36 = landingpad { ptr, i32 }
          cleanup
  call void @_ZN4absl12lts_202407226StatusD2Ev(ptr noundef nonnull align 8 dereferenceable(8) %3) #30
  br label %42

37:                                               ; preds = %_ZN4absl12lts_202407226StatusD2Ev.exit
  %38 = landingpad { ptr, i32 }
          cleanup
  br label %42

_ZNSt10unique_ptrI13grpc_endpointN9grpc_core16OrphanableDeleteEE5resetEPS0_.exit: ; preds = %31, %27, %2
  invoke void @_ZN4absl12lts_202407225Mutex6UnlockEv(ptr noundef nonnull align 8 dereferenceable(8) %4)
          to label %_ZN4absl12lts_202407229MutexLockD2Ev.exit unwind label %39

39:                                               ; preds = %_ZNSt10unique_ptrI13grpc_endpointN9grpc_core16OrphanableDeleteEE5resetEPS0_.exit
  %40 = landingpad { ptr, i32 }
          catch ptr null
  %41 = extractvalue { ptr, i32 } %40, 0
  call void @__clang_call_terminate(ptr %41) #33
  unreachable

_ZN4absl12lts_202407229MutexLockD2Ev.exit:        ; preds = %_ZNSt10unique_ptrI13grpc_endpointN9grpc_core16OrphanableDeleteEE5resetEPS0_.exit
  ret void

42:                                               ; preds = %37, %35
  %.pn = phi { ptr, i32 } [ %38, %37 ], [ %36, %35 ]
  invoke void @_ZN4absl12lts_202407225Mutex6UnlockEv(ptr noundef nonnull align 8 dereferenceable(8) %4)
          to label %_ZN4absl12lts_202407229MutexLockD2Ev.exit5 unwind label %43

43:                                               ; preds = %42
  %44 = landingpad { ptr, i32 }
          catch ptr null
  %45 = extractvalue { ptr, i32 } %44, 0
  call void @__clang_call_terminate(ptr %45) #33
  unreachable

_ZN4absl12lts_202407229MutexLockD2Ev.exit5:       ; preds = %42
  resume { ptr, i32 } %.pn
}